target datalayout = "e-m:e-p270:32:32-p271:32:32-p272:64:64-i64:64-i128:128-f80:128-n8:16:32:64-S128"
target triple = "x86_64-pc-linux-gnu"

%struct.P9Req = type { ptr, ptr, i16, i64, i32, i64, i64, i64, i32 }
%struct.P9Hdr = type <{ i32, i8, i16 }>

@alloc = internal global ptr null, align 8
@.str = private unnamed_addr constant [46 x i8] c"../qemu/tests/qtest/libqos/virtio-9p-client.c\00", align 1
@.str.2 = private unnamed_addr constant [3 x i8] c"<=\00", align 1
@__func__.v9fs_req_init = private unnamed_addr constant [14 x i8] c"v9fs_req_init\00", align 1
@.str.4 = private unnamed_addr constant [32 x i8] c"total_size <= UINT32_MAX - size\00", align 1
@.str.5 = private unnamed_addr constant [26 x i8] c"total_size <= P9_MAX_SIZE\00", align 1
@global_qtest = weak dso_local global ptr null, align 8

; Function Attrs: nounwind sspstrong uwtable
define dso_local void @v9fs_memwrite(ptr noundef %0, ptr noundef %1, i64 noundef %2) #0 {
  %4 = alloca ptr, align 8
  %5 = alloca ptr, align 8
  %6 = alloca i64, align 8
  store ptr %0, ptr %4, align 8
  store ptr %1, ptr %5, align 8
  store i64 %2, ptr %6, align 8
  %7 = load ptr, ptr %4, align 8
  %8 = getelementptr inbounds nuw %struct.P9Req, ptr %7, i32 0, i32 0
  %9 = load ptr, ptr %8, align 8
  %10 = load ptr, ptr %4, align 8
  %11 = getelementptr inbounds nuw %struct.P9Req, ptr %10, i32 0, i32 3
  %12 = load i64, ptr %11, align 8
  %13 = load ptr, ptr %4, align 8
  %14 = getelementptr inbounds nuw %struct.P9Req, ptr %13, i32 0, i32 6
  %15 = load i64, ptr %14, align 8
  %16 = add i64 %12, %15
  %17 = load ptr, ptr %5, align 8
  %18 = load i64, ptr %6, align 8
  call void @qtest_memwrite(ptr noundef %9, i64 noundef %16, ptr noundef %17, i64 noundef %18)
  %19 = load i64, ptr %6, align 8
  %20 = load ptr, ptr %4, align 8
  %21 = getelementptr inbounds nuw %struct.P9Req, ptr %20, i32 0, i32 6
  %22 = load i64, ptr %21, align 8
  %23 = add i64 %22, %19
  store i64 %23, ptr %21, align 8
  ret void
}

; Function Attrs: inlinehint nounwind sspstrong uwtable
define internal i32 @cpu_to_le32(i32 noundef %0) #3 {
  %2 = alloca i32, align 4
  store i32 %0, ptr %2, align 4
  %3 = load i32, ptr %2, align 4
  ret i32 %3
}

; Function Attrs: inlinehint nounwind sspstrong uwtable
define internal zeroext i16 @cpu_to_le16(i16 noundef zeroext %0) #3 {
  %2 = alloca i16, align 2
  store i16 %0, ptr %2, align 2
  %3 = load i16, ptr %2, align 2
  ret i16 %3
}

; Function Attrs: nounwind sspstrong uwtable
define dso_local ptr @v9fs_req_init(ptr noundef %0, i32 noundef %1, i8 noundef zeroext %2, i16 noundef zeroext %3) #0 {
  %5 = alloca ptr, align 8
  %6 = alloca i32, align 4
  %7 = alloca i8, align 1
  %8 = alloca i16, align 2
  %9 = alloca ptr, align 8
  %10 = alloca i64, align 8
  %11 = alloca i64, align 8
  %12 = alloca ptr, align 8
  %13 = alloca ptr, align 8
  %14 = alloca i32, align 4
  %15 = alloca %struct.P9Hdr, align 1
  %16 = alloca i64, align 8
  %17 = alloca i64, align 8
  %18 = alloca i64, align 8
  %19 = alloca i64, align 8
  store ptr %0, ptr %5, align 8
  store i32 %1, ptr %6, align 4
  store i8 %2, ptr %7, align 1
  store i16 %3, ptr %8, align 2
  call void @llvm.lifetime.start.p0(i64 8, ptr %9) #13
  call void @llvm.lifetime.start.p0(i64 8, ptr %10) #13
  store i64 1, ptr %10, align 8
  call void @llvm.lifetime.start.p0(i64 8, ptr %11) #13
  store i64 72, ptr %11, align 8
  call void @llvm.lifetime.start.p0(i64 8, ptr %12) #13
  store ptr null, ptr %12, align 8, !annotation !4
  %20 = load i64, ptr %11, align 8
  %21 = icmp eq i64 %20, 1
  br i1 %21, label %22, label %25

22:                                               ; preds = %4
  %23 = load i64, ptr %10, align 8
  %24 = call noalias ptr @g_malloc0(i64 noundef %23) #15
  store ptr %24, ptr %12, align 8
  br label %46

25:                                               ; preds = %4
  %26 = load i64, ptr %10, align 8
  %27 = call i1 @llvm.is.constant.i64(i64 %26)
  br i1 %27, label %28, label %41

28:                                               ; preds = %25
  %29 = load i64, ptr %11, align 8
  %30 = icmp eq i64 %29, 0
  br i1 %30, label %36, label %31

31:                                               ; preds = %28
  %32 = load i64, ptr %10, align 8
  %33 = load i64, ptr %11, align 8
  %34 = udiv i64 -1, %33
  %35 = icmp ule i64 %32, %34
  br i1 %35, label %36, label %41

36:                                               ; preds = %31, %28
  %37 = load i64, ptr %10, align 8
  %38 = load i64, ptr %11, align 8
  %39 = mul i64 %37, %38
  %40 = call noalias ptr @g_malloc0(i64 noundef %39) #15
  store ptr %40, ptr %12, align 8
  br label %45

41:                                               ; preds = %31, %25
  %42 = load i64, ptr %10, align 8
  %43 = load i64, ptr %11, align 8
  %44 = call noalias ptr @g_malloc0_n(i64 noundef %42, i64 noundef %43) #16
  store ptr %44, ptr %12, align 8
  br label %45

45:                                               ; preds = %41, %36
  br label %46

46:                                               ; preds = %45, %22
  %47 = load ptr, ptr %12, align 8
  store ptr %47, ptr %13, align 8
  call void @llvm.lifetime.end.p0(i64 8, ptr %12) #13
  call void @llvm.lifetime.end.p0(i64 8, ptr %11) #13
  call void @llvm.lifetime.end.p0(i64 8, ptr %10) #13
  %48 = load ptr, ptr %13, align 8
  store ptr %48, ptr %9, align 8
  call void @llvm.lifetime.start.p0(i64 4, ptr %14) #13
  store i32 7, ptr %14, align 4
  call void @llvm.lifetime.start.p0(i64 7, ptr %15) #13
  call void @llvm.memset.p0.i64(ptr align 1 %15, i8 0, i64 7, i1 false), !annotation !4
  %49 = getelementptr inbounds nuw %struct.P9Hdr, ptr %15, i32 0, i32 0
  store i32 0, ptr %49, align 1
  %50 = getelementptr inbounds nuw %struct.P9Hdr, ptr %15, i32 0, i32 1
  %51 = load i8, ptr %7, align 1
  store i8 %51, ptr %50, align 1
  %52 = getelementptr inbounds nuw %struct.P9Hdr, ptr %15, i32 0, i32 2
  %53 = load i16, ptr %8, align 2
  %54 = call zeroext i16 @cpu_to_le16(i16 noundef zeroext %53)
  store i16 %54, ptr %52, align 1
  br label %55

55:                                               ; preds = %46
  call void @llvm.lifetime.start.p0(i64 8, ptr %16) #13
  %56 = load i32, ptr %14, align 4
  %57 = zext i32 %56 to i64
  store i64 %57, ptr %16, align 8
  call void @llvm.lifetime.start.p0(i64 8, ptr %17) #13
  %58 = load i32, ptr %6, align 4
  %59 = sub i32 -1, %58
  %60 = zext i32 %59 to i64
  store i64 %60, ptr %17, align 8
  %61 = load i64, ptr %16, align 8
  %62 = load i64, ptr %17, align 8
  %63 = icmp sle i64 %61, %62
  br i1 %63, label %64, label %65

64:                                               ; preds = %55
  br label %70

65:                                               ; preds = %55
  %66 = load i64, ptr %16, align 8
  %67 = sitofp i64 %66 to x86_fp80
  %68 = load i64, ptr %17, align 8
  %69 = sitofp i64 %68 to x86_fp80
  call void @g_assertion_message_cmpnum(ptr noundef null, ptr noundef @.str, i32 noundef 199, ptr noundef @__func__.v9fs_req_init, ptr noundef @.str.4, x86_fp80 noundef %67, ptr noundef @.str.2, x86_fp80 noundef %69, i8 noundef signext 105)
  br label %70

70:                                               ; preds = %65, %64
  call void @llvm.lifetime.end.p0(i64 8, ptr %17) #13
  call void @llvm.lifetime.end.p0(i64 8, ptr %16) #13
  br label %71

71:                                               ; preds = %70
  br label %72

72:                                               ; preds = %71
  %73 = load i32, ptr %6, align 4
  %74 = load i32, ptr %14, align 4
  %75 = add i32 %74, %73
  store i32 %75, ptr %14, align 4
  %76 = load i32, ptr %14, align 4
  %77 = call i32 @cpu_to_le32(i32 noundef %76)
  %78 = getelementptr inbounds nuw %struct.P9Hdr, ptr %15, i32 0, i32 0
  store i32 %77, ptr %78, align 1
  br label %79

79:                                               ; preds = %72
  call void @llvm.lifetime.start.p0(i64 8, ptr %18) #13
  %80 = load i32, ptr %14, align 4
  %81 = zext i32 %80 to i64
  store i64 %81, ptr %18, align 8
  call void @llvm.lifetime.start.p0(i64 8, ptr %19) #13
  store i64 4096, ptr %19, align 8
  %82 = load i64, ptr %18, align 8
  %83 = load i64, ptr %19, align 8
  %84 = icmp sle i64 %82, %83
  br i1 %84, label %85, label %86

85:                                               ; preds = %79
  br label %91

86:                                               ; preds = %79
  %87 = load i64, ptr %18, align 8
  %88 = sitofp i64 %87 to x86_fp80
  %89 = load i64, ptr %19, align 8
  %90 = sitofp i64 %89 to x86_fp80
  call void @g_assertion_message_cmpnum(ptr noundef null, ptr noundef @.str, i32 noundef 203, ptr noundef @__func__.v9fs_req_init, ptr noundef @.str.5, x86_fp80 noundef %88, ptr noundef @.str.2, x86_fp80 noundef %90, i8 noundef signext 105)
  br label %91

91:                                               ; preds = %86, %85
  call void @llvm.lifetime.end.p0(i64 8, ptr %19) #13
  call void @llvm.lifetime.end.p0(i64 8, ptr %18) #13
  br label %92

92:                                               ; preds = %91
  br label %93

93:                                               ; preds = %92
  %94 = load ptr, ptr @global_qtest, align 8
  %95 = load ptr, ptr %9, align 8
  %96 = getelementptr inbounds nuw %struct.P9Req, ptr %95, i32 0, i32 0
  store ptr %94, ptr %96, align 8
  %97 = load ptr, ptr %5, align 8
  %98 = load ptr, ptr %9, align 8
  %99 = getelementptr inbounds nuw %struct.P9Req, ptr %98, i32 0, i32 1
  store ptr %97, ptr %99, align 8
  %100 = load i32, ptr %14, align 4
  %101 = load ptr, ptr %9, align 8
  %102 = getelementptr inbounds nuw %struct.P9Req, ptr %101, i32 0, i32 4
  store i32 %100, ptr %102, align 8
  %103 = load ptr, ptr @alloc, align 8
  %104 = load ptr, ptr %9, align 8
  %105 = getelementptr inbounds nuw %struct.P9Req, ptr %104, i32 0, i32 4
  %106 = load i32, ptr %105, align 8
  %107 = zext i32 %106 to i64
  %108 = call i64 @guest_alloc(ptr noundef %103, i64 noundef %107)
  %109 = load ptr, ptr %9, align 8
  %110 = getelementptr inbounds nuw %struct.P9Req, ptr %109, i32 0, i32 3
  store i64 %108, ptr %110, align 8
  %111 = load ptr, ptr %9, align 8
  call void @v9fs_memwrite(ptr noundef %111, ptr noundef %15, i64 noundef 7)
  %112 = load i16, ptr %8, align 2
  %113 = load ptr, ptr %9, align 8
  %114 = getelementptr inbounds nuw %struct.P9Req, ptr %113, i32 0, i32 2
  store i16 %112, ptr %114, align 8
  %115 = load ptr, ptr %9, align 8
  call void @llvm.lifetime.end.p0(i64 7, ptr %15) #13
  call void @llvm.lifetime.end.p0(i64 4, ptr %14) #13
  call void @llvm.lifetime.end.p0(i64 8, ptr %9) #13
  ret ptr %115
}