; Function Attrs: nounwind sspstrong uwtable
define dso_local noalias noundef ptr @v9fs_req_init(ptr noundef %0, i32 noundef %1, i8 noundef zeroext %2, i16 noundef zeroext %3) local_unnamed_addr #1 {
  %5 = alloca %struct.P9Hdr, align 4
  %6 = tail call noalias dereferenceable_or_null(72) ptr @g_malloc0(i64 noundef 72) #16
  call void @llvm.lifetime.start.p0(i64 7, ptr nonnull %5) #14
  %7 = getelementptr inbounds nuw i8, ptr %5, i64 4
  store i32 0, ptr %5, align 4
  store i8 %2, ptr %7, align 4
  %8 = getelementptr inbounds nuw i8, ptr %5, i64 5
  store i16 %3, ptr %8, align 1
  %9 = icmp ult i32 %1, -7
  br i1 %9, label %13, label %.thread

.thread:                                          ; preds = %4
  %10 = xor i32 %1, -1
  %11 = uitofp nneg i32 %10 to x86_fp80
  tail call void @g_assertion_message_cmpnum(ptr noundef null, ptr noundef nonnull @.str, i32 noundef 199, ptr noundef nonnull @__func__.v9fs_req_init, ptr noundef nonnull @.str.4, x86_fp80 noundef 0xK4001E000000000000000, ptr noundef nonnull @.str.2, x86_fp80 noundef %11, i8 noundef signext 105) #14
  %12 = add nsw i32 %1, 7
  store i32 %12, ptr %5, align 4
  br label %18

13:                                               ; preds = %4
  %14 = add nuw i32 %1, 7
  store i32 %14, ptr %5, align 4
  %15 = icmp ult i32 %1, 4090
  br i1 %15, label %18, label %16

16:                                               ; preds = %13
  %17 = uitofp i32 %14 to x86_fp80
  tail call void @g_assertion_message_cmpnum(ptr noundef null, ptr noundef nonnull @.str, i32 noundef 203, ptr noundef nonnull @__func__.v9fs_req_init, ptr noundef nonnull @.str.5, x86_fp80 noundef %17, ptr noundef nonnull @.str.2, x86_fp80 noundef 0xK400B8000000000000000, i8 noundef signext 105) #14
  br label %18

18:                                               ; preds = %.thread, %13, %16
  %19 = phi i32 [ %12, %.thread ], [ %14, %13 ], [ %14, %16 ]
  %20 = zext i32 %19 to i64
  %21 = load ptr, ptr @global_qtest, align 8
  store ptr %21, ptr %6, align 8
  %22 = getelementptr inbounds nuw i8, ptr %6, i64 8
  store ptr %0, ptr %22, align 8
  %23 = getelementptr inbounds nuw i8, ptr %6, i64 32
  store i32 %19, ptr %23, align 8
  %24 = load ptr, ptr @alloc, align 8
  %25 = tail call i64 @guest_alloc(ptr noundef %24, i64 noundef %20) #14
  %26 = getelementptr inbounds nuw i8, ptr %6, i64 24
  store i64 %25, ptr %26, align 8
  %27 = getelementptr inbounds nuw i8, ptr %6, i64 48
  %28 = load i64, ptr %27, align 8
  %29 = add i64 %28, %25
  call void @qtest_memwrite(ptr noundef %21, i64 noundef %29, ptr noundef nonnull %5, i64 noundef 7) #14
  %30 = add i64 %28, 7
  store i64 %30, ptr %27, align 8
  %31 = getelementptr inbounds nuw i8, ptr %6, i64 16
  store i16 %3, ptr %31, align 8
  call void @llvm.lifetime.end.p0(i64 7, ptr nonnull %5) #14
  ret ptr %6
}